; ModuleID = '64/3175.c'
source_filename = "64/3175.c"
target datalayout = "e-m:e-p270:32:32-p271:32:32-p272:64:64-i64:64-f80:128-n8:16:32:64-S128"
target triple = "x86_64-pc-linux-gnu"

@.str = private unnamed_addr constant [4 x i8] c"%d\0A\00", align 1
@.str.1 = private unnamed_addr constant [7 x i8] c"%d%d%d\00", align 1
@.str.2 = private unnamed_addr constant [29 x i8] c"(%d,%d,%d)-(%d,%d,%d)=%.2lf\0A\00", align 1

; Function Attrs: noinline nounwind uwtable
define dso_local i32 @main() #0 {
  %1 = alloca i32, align 4
  %2 = alloca i32, align 4
  %3 = alloca i32, align 4
  %4 = alloca [1000 x [3 x i32]], align 16
  %5 = alloca [100 x [100 x double]], align 16
  %6 = alloca double, align 8
  %7 = alloca i32, align 4
  %8 = alloca i32, align 4
  %9 = alloca i32, align 4
  %10 = alloca i32, align 4
  %11 = alloca i32, align 4
  %12 = alloca i32, align 4
  %13 = alloca i32, align 4
  %14 = alloca i32, align 4
  %15 = alloca i32, align 4
  store i32 0, i32* %1, align 4
  %16 = call i32 (i8*, ...) @__isoc99_scanf(i8* getelementptr inbounds ([4 x i8], [4 x i8]* @.str, i64 0, i64 0), i32* %2)
  store i32 0, i32* %7, align 4
  br label %17

17:                                               ; preds = %35, %0
  %18 = load i32, i32* %7, align 4
  %19 = load i32, i32* %2, align 4
  %20 = icmp slt i32 %18, %19
  br i1 %20, label %21, label %38

21:                                               ; preds = %17
  %22 = load i32, i32* %7, align 4
  %23 = sext i32 %22 to i64
  %24 = getelementptr inbounds [1000 x [3 x i32]], [1000 x [3 x i32]]* %4, i64 0, i64 %23
  %25 = getelementptr inbounds [3 x i32], [3 x i32]* %24, i64 0, i64 0
  %26 = load i32, i32* %7, align 4
  %27 = sext i32 %26 to i64
  %28 = getelementptr inbounds [1000 x [3 x i32]], [1000 x [3 x i32]]* %4, i64 0, i64 %27
  %29 = getelementptr inbounds [3 x i32], [3 x i32]* %28, i64 0, i64 1
  %30 = load i32, i32* %7, align 4
  %31 = sext i32 %30 to i64
  %32 = getelementptr inbounds [1000 x [3 x i32]], [1000 x [3 x i32]]* %4, i64 0, i64 %31
  %33 = getelementptr inbounds [3 x i32], [3 x i32]* %32, i64 0, i64 2
  %34 = call i32 (i8*, ...) @__isoc99_scanf(i8* getelementptr inbounds ([7 x i8], [7 x i8]* @.str.1, i64 0, i64 0), i32* %25, i32* %29, i32* %33)
  br label %35

35:                                               ; preds = %21
  %36 = load i32, i32* %7, align 4
  %37 = add nsw i32 %36, 1
  store i32 %37, i32* %7, align 4
  br label %17

38:                                               ; preds = %17
  store i32 0, i32* %8, align 4
  br label %39

39:                                               ; preds = %135, %38
  %40 = load i32, i32* %8, align 4
  %41 = load i32, i32* %2, align 4
  %42 = sub nsw i32 %41, 1
  %43 = icmp slt i32 %40, %42
  br i1 %43, label %44, label %138

44:                                               ; preds = %39
  %45 = load i32, i32* %8, align 4
  %46 = add nsw i32 %45, 1
  store i32 %46, i32* %9, align 4
  br label %47

47:                                               ; preds = %131, %44
  %48 = load i32, i32* %9, align 4
  %49 = load i32, i32* %2, align 4
  %50 = icmp slt i32 %48, %49
  br i1 %50, label %51, label %134

51:                                               ; preds = %47
  %52 = load i32, i32* %8, align 4
  %53 = sext i32 %52 to i64
  %54 = getelementptr inbounds [1000 x [3 x i32]], [1000 x [3 x i32]]* %4, i64 0, i64 %53
  %55 = getelementptr inbounds [3 x i32], [3 x i32]* %54, i64 0, i64 0
  %56 = load i32, i32* %55, align 4
  %57 = load i32, i32* %9, align 4
  %58 = sext i32 %57 to i64
  %59 = getelementptr inbounds [1000 x [3 x i32]], [1000 x [3 x i32]]* %4, i64 0, i64 %58
  %60 = getelementptr inbounds [3 x i32], [3 x i32]* %59, i64 0, i64 0
  %61 = load i32, i32* %60, align 4
  %62 = sub nsw i32 %56, %61
  %63 = load i32, i32* %8, align 4
  %64 = sext i32 %63 to i64
  %65 = getelementptr inbounds [1000 x [3 x i32]], [1000 x [3 x i32]]* %4, i64 0, i64 %64
  %66 = getelementptr inbounds [3 x i32], [3 x i32]* %65, i64 0, i64 0
  %67 = load i32, i32* %66, align 4
  %68 = load i32, i32* %9, align 4
  %69 = sext i32 %68 to i64
  %70 = getelementptr inbounds [1000 x [3 x i32]], [1000 x [3 x i32]]* %4, i64 0, i64 %69
  %71 = getelementptr inbounds [3 x i32], [3 x i32]* %70, i64 0, i64 0
  %72 = load i32, i32* %71, align 4
  %73 = sub nsw i32 %67, %72
  %74 = mul nsw i32 %62, %73
  %75 = load i32, i32* %8, align 4
  %76 = sext i32 %75 to i64
  %77 = getelementptr inbounds [1000 x [3 x i32]], [1000 x [3 x i32]]* %4, i64 0, i64 %76
  %78 = getelementptr inbounds [3 x i32], [3 x i32]* %77, i64 0, i64 1
  %79 = load i32, i32* %78, align 4
  %80 = load i32, i32* %9, align 4
  %81 = sext i32 %80 to i64
  %82 = getelementptr inbounds [1000 x [3 x i32]], [1000 x [3 x i32]]* %4, i64 0, i64 %81
  %83 = getelementptr inbounds [3 x i32], [3 x i32]* %82, i64 0, i64 1
  %84 = load i32, i32* %83, align 4
  %85 = sub nsw i32 %79, %84
  %86 = load i32, i32* %8, align 4
  %87 = sext i32 %86 to i64
  %88 = getelementptr inbounds [1000 x [3 x i32]], [1000 x [3 x i32]]* %4, i64 0, i64 %87
  %89 = getelementptr inbounds [3 x i32], [3 x i32]* %88, i64 0, i64 1
  %90 = load i32, i32* %89, align 4
  %91 = load i32, i32* %9, align 4
  %92 = sext i32 %91 to i64
  %93 = getelementptr inbounds [1000 x [3 x i32]], [1000 x [3 x i32]]* %4, i64 0, i64 %92
  %94 = getelementptr inbounds [3 x i32], [3 x i32]* %93, i64 0, i64 1
  %95 = load i32, i32* %94, align 4
  %96 = sub nsw i32 %90, %95
  %97 = mul nsw i32 %85, %96
  %98 = add nsw i32 %74, %97
  %99 = load i32, i32* %8, align 4
  %100 = sext i32 %99 to i64
  %101 = getelementptr inbounds [1000 x [3 x i32]], [1000 x [3 x i32]]* %4, i64 0, i64 %100
  %102 = getelementptr inbounds [3 x i32], [3 x i32]* %101, i64 0, i64 2
  %103 = load i32, i32* %102, align 4
  %104 = load i32, i32* %9, align 4
  %105 = sext i32 %104 to i64
  %106 = getelementptr inbounds [1000 x [3 x i32]], [1000 x [3 x i32]]* %4, i64 0, i64 %105
  %107 = getelementptr inbounds [3 x i32], [3 x i32]* %106, i64 0, i64 2
  %108 = load i32, i32* %107, align 4
  %109 = sub nsw i32 %103, %108
  %110 = load i32, i32* %8, align 4
  %111 = sext i32 %110 to i64
  %112 = getelementptr inbounds [1000 x [3 x i32]], [1000 x [3 x i32]]* %4, i64 0, i64 %111
  %113 = getelementptr inbounds [3 x i32], [3 x i32]* %112, i64 0, i64 2
  %114 = load i32, i32* %113, align 4
  %115 = load i32, i32* %9, align 4
  %116 = sext i32 %115 to i64
  %117 = getelementptr inbounds [1000 x [3 x i32]], [1000 x [3 x i32]]* %4, i64 0, i64 %116
  %118 = getelementptr inbounds [3 x i32], [3 x i32]* %117, i64 0, i64 2
  %119 = load i32, i32* %118, align 4
  %120 = sub nsw i32 %114, %119
  %121 = mul nsw i32 %109, %120
  %122 = add nsw i32 %98, %121
  %123 = sitofp i32 %122 to double
  %124 = call double @sqrt(double %123) #3
  %125 = load i32, i32* %8, align 4
  %126 = sext i32 %125 to i64
  %127 = getelementptr inbounds [100 x [100 x double]], [100 x [100 x double]]* %5, i64 0, i64 %126
  %128 = load i32, i32* %9, align 4
  %129 = sext i32 %128 to i64
  %130 = getelementptr inbounds [100 x double], [100 x double]* %127, i64 0, i64 %129
  store double %124, double* %130, align 8
  br label %131

131:                                              ; preds = %51
  %132 = load i32, i32* %9, align 4
  %133 = add nsw i32 %132, 1
  store i32 %133, i32* %9, align 4
  br label %47

134:                                              ; preds = %47
  br label %135

135:                                              ; preds = %134
  %136 = load i32, i32* %8, align 4
  %137 = add nsw i32 %136, 1
  store i32 %137, i32* %8, align 4
  br label %39

138:                                              ; preds = %39
  store i32 0, i32* %13, align 4
  %139 = load i32, i32* %2, align 4
  %140 = load i32, i32* %2, align 4
  %141 = sub nsw i32 %140, 1
  %142 = mul nsw i32 %139, %141
  %143 = sdiv i32 %142, 2
  store i32 %143, i32* %10, align 4
  store i32 0, i32* %14, align 4
  br label %144

144:                                              ; preds = %230, %138
  %145 = load i32, i32* %14, align 4
  %146 = icmp slt i32 %145, 9
  br i1 %146, label %147, label %233

147:                                              ; preds = %144
  %148 = load i32, i32* %13, align 4
  %149 = load i32, i32* %10, align 4
  %150 = icmp eq i32 %148, %149
  br i1 %150, label %151, label %152

151:                                              ; preds = %147
  br label %233

152:                                              ; preds = %147
  %153 = load i32, i32* %14, align 4
  %154 = add nsw i32 %153, 1
  store i32 %154, i32* %15, align 4
  br label %155

155:                                              ; preds = %226, %152
  %156 = load i32, i32* %15, align 4
  %157 = icmp slt i32 %156, 10
  br i1 %157, label %158, label %229

158:                                              ; preds = %155
  %159 = load double, double* %6, align 8
  %160 = load i32, i32* %14, align 4
  %161 = sext i32 %160 to i64
  %162 = getelementptr inbounds [100 x [100 x double]], [100 x [100 x double]]* %5, i64 0, i64 %161
  %163 = load i32, i32* %15, align 4
  %164 = sext i32 %163 to i64
  %165 = getelementptr inbounds [100 x double], [100 x double]* %162, i64 0, i64 %164
  %166 = load double, double* %165, align 8
  %167 = fcmp olt double %159, %166
  br i1 %167, label %168, label %178

168:                                              ; preds = %158
  %169 = load i32, i32* %14, align 4
  %170 = sext i32 %169 to i64
  %171 = getelementptr inbounds [100 x [100 x double]], [100 x [100 x double]]* %5, i64 0, i64 %170
  %172 = load i32, i32* %15, align 4
  %173 = sext i32 %172 to i64
  %174 = getelementptr inbounds [100 x double], [100 x double]* %171, i64 0, i64 %173
  %175 = load double, double* %174, align 8
  store double %175, double* %6, align 8
  %176 = load i32, i32* %14, align 4
  store i32 %176, i32* %11, align 4
  %177 = load i32, i32* %15, align 4
  store i32 %177, i32* %12, align 4
  br label %178

178:                                              ; preds = %168, %158
  %179 = load i32, i32* %14, align 4
  %180 = icmp eq i32 %179, 8
  br i1 %180, label %181, label %225

181:                                              ; preds = %178
  %182 = load i32, i32* %15, align 4
  %183 = icmp eq i32 %182, 9
  br i1 %183, label %184, label %225

184:                                              ; preds = %181
  %185 = load i32, i32* %11, align 4
  %186 = sext i32 %185 to i64
  %187 = getelementptr inbounds [1000 x [3 x i32]], [1000 x [3 x i32]]* %4, i64 0, i64 %186
  %188 = getelementptr inbounds [3 x i32], [3 x i32]* %187, i64 0, i64 0
  %189 = load i32, i32* %188, align 4
  %190 = load i32, i32* %11, align 4
  %191 = sext i32 %190 to i64
  %192 = getelementptr inbounds [1000 x [3 x i32]], [1000 x [3 x i32]]* %4, i64 0, i64 %191
  %193 = getelementptr inbounds [3 x i32], [3 x i32]* %192, i64 0, i64 1
  %194 = load i32, i32* %193, align 4
  %195 = load i32, i32* %11, align 4
  %196 = sext i32 %195 to i64
  %197 = getelementptr inbounds [1000 x [3 x i32]], [1000 x [3 x i32]]* %4, i64 0, i64 %196
  %198 = getelementptr inbounds [3 x i32], [3 x i32]* %197, i64 0, i64 2
  %199 = load i32, i32* %198, align 4
  %200 = load i32, i32* %12, align 4
  %201 = sext i32 %200 to i64
  %202 = getelementptr inbounds [1000 x [3 x i32]], [1000 x [3 x i32]]* %4, i64 0, i64 %201
  %203 = getelementptr inbounds [3 x i32], [3 x i32]* %202, i64 0, i64 0
  %204 = load i32, i32* %203, align 4
  %205 = load i32, i32* %12, align 4
  %206 = sext i32 %205 to i64
  %207 = getelementptr inbounds [1000 x [3 x i32]], [1000 x [3 x i32]]* %4, i64 0, i64 %206
  %208 = getelementptr inbounds [3 x i32], [3 x i32]* %207, i64 0, i64 1
  %209 = load i32, i32* %208, align 4
  %210 = load i32, i32* %12, align 4
  %211 = sext i32 %210 to i64
  %212 = getelementptr inbounds [1000 x [3 x i32]], [1000 x [3 x i32]]* %4, i64 0, i64 %211
  %213 = getelementptr inbounds [3 x i32], [3 x i32]* %212, i64 0, i64 2
  %214 = load i32, i32* %213, align 4
  %215 = load double, double* %6, align 8
  %216 = call i32 (i8*, ...) @printf(i8* getelementptr inbounds ([29 x i8], [29 x i8]* @.str.2, i64 0, i64 0), i32 %189, i32 %194, i32 %199, i32 %204, i32 %209, i32 %214, double %215)
  %217 = load i32, i32* %11, align 4
  %218 = sext i32 %217 to i64
  %219 = getelementptr inbounds [100 x [100 x double]], [100 x [100 x double]]* %5, i64 0, i64 %218
  %220 = load i32, i32* %12, align 4
  %221 = sext i32 %220 to i64
  %222 = getelementptr inbounds [100 x double], [100 x double]* %219, i64 0, i64 %221
  store double 0.000000e+00, double* %222, align 8
  store i32 -1, i32* %14, align 4
  store double 0.000000e+00, double* %6, align 8
  %223 = load i32, i32* %13, align 4
  %224 = add nsw i32 %223, 1
  store i32 %224, i32* %13, align 4
  br label %225

225:                                              ; preds = %184, %181, %178
  br label %226

226:                                              ; preds = %225
  %227 = load i32, i32* %15, align 4
  %228 = add nsw i32 %227, 1
  store i32 %228, i32* %15, align 4
  br label %155

229:                                              ; preds = %155
  br label %230

230:                                              ; preds = %229
  %231 = load i32, i32* %14, align 4
  %232 = add nsw i32 %231, 1
  store i32 %232, i32* %14, align 4
  br label %144

233:                                              ; preds = %151, %144
  ret i32 0
}

declare dso_local i32 @__isoc99_scanf(i8*, ...) #1

; Function Attrs: nounwind
declare dso_local double @sqrt(double) #2

declare dso_local i32 @printf(i8*, ...) #1


!llvm.module.flags = !{!0}
!llvm.ident = !{!1}

!0 = !{i32 1, !"wchar_size", i32 4}
!1 = !{!"clang version 10.0.0-4ubuntu1 "}
